; Function Attrs: mustprogress uwtable
define hidden void @_ZN5boost9unit_test6output20xml_report_formatter22do_confirmation_reportERKNS0_9test_unitERSo(ptr noundef nonnull align 8 dereferenceable(8) %0, ptr noundef nonnull align 8 dereferenceable(280) %1, ptr noundef nonnull align 8 dereferenceable(8) %2) unnamed_addr #3 align 2 {
  %4 = load ptr, ptr %0, align 8, !tbaa !14
  %5 = getelementptr inbounds i8, ptr %4, i64 32
  %6 = load ptr, ptr %5, align 8
  tail call void %6(ptr noundef nonnull align 8 dereferenceable(8) %0, ptr noundef nonnull align 8 dereferenceable(280) %1, ptr noundef nonnull align 8 dereferenceable(8) %2)
  %7 = load ptr, ptr %0, align 8, !tbaa !14
  %8 = getelementptr inbounds i8, ptr %7, i64 40
  %9 = load ptr, ptr %8, align 8
  tail call void %9(ptr noundef nonnull align 8 dereferenceable(8) %0, ptr noundef nonnull align 8 dereferenceable(280) %1, ptr noundef nonnull align 8 dereferenceable(8) %2)
  ret void
}